---
triple:          'arm64-apple-darwin'
binary-path:     a
relocations:
  - { offsetInCU: 0x5C, offset: 0x5C, size: 0x8, addend: 0x0, symName: __ZNSt3__119piecewise_constructE, symObjAddr: 0x3DA1, symBinAddr: 0x100007C90, symSize: 0x0 }
  - { offsetInCU: 0xAC03, offset: 0xAC03, size: 0x8, addend: 0x0, symName: __ZNSt3__124__put_character_sequenceB8ue170006IcNS_11char_traitsIcEEEERNS_13basic_ostreamIT_T0_EES7_PKS4_m, symObjAddr: 0x1514, symBinAddr: 0x100005330, symSize: 0x164 }
  - { offsetInCU: 0x110D1, offset: 0x110D1, size: 0x8, addend: 0x0, symName: __ZNSt3__120__throw_length_errorB8ue170006EPKc, symObjAddr: 0x810, symBinAddr: 0x10000462C, symSize: 0x50 }
  - { offsetInCU: 0x11757, offset: 0x11757, size: 0x8, addend: 0x0, symName: __ZNSt3__116__pad_and_outputB8ue170006IcNS_11char_traitsIcEEEENS_19ostreambuf_iteratorIT_T0_EES6_PKS4_S8_S8_RNS_8ios_baseES4_, symObjAddr: 0x1678, symBinAddr: 0x100005494, symSize: 0x194 }
  - { offsetInCU: 0x12073, offset: 0x12073, size: 0x8, addend: 0x0, symName: '__ZNSt3__114__thread_proxyB8ue170006INS_5tupleIJNS_10unique_ptrINS_15__thread_structENS_14default_deleteIS3_EEEEZ4mainE3$_0EEEEEPvS9_', symObjAddr: 0x180C, symBinAddr: 0x100005628, symSize: 0x78 }
  - { offsetInCU: 0x13435, offset: 0x13435, size: 0x8, addend: 0x0, symName: __ZNSt3__114__thread_proxyB8ue170006INS_5tupleIJNS_10unique_ptrINS_15__thread_structENS_14default_deleteIS3_EEEEM24MatchingEngineDispatcherFvvEPS7_EEEEEPvSC_, symObjAddr: 0x3028, symBinAddr: 0x100006E44, symSize: 0x8C }
  - { offsetInCU: 0x13DAB, offset: 0x13DAB, size: 0x8, addend: 0x0, symName: __ZNSt3__114__thread_proxyB8ue170006INS_5tupleIJNS_10unique_ptrINS_15__thread_structENS_14default_deleteIS3_EEEEM24MatchingEngineDispatcherFviEPS7_iEEEEEPvSC_, symObjAddr: 0x333C, symBinAddr: 0x100007158, symSize: 0x90 }
  - { offsetInCU: 0x1446E, offset: 0x1446E, size: 0x8, addend: 0x0, symName: __ZSt28__throw_bad_array_new_lengthB8ue170006v, symObjAddr: 0x884, symBinAddr: 0x1000046A0, symSize: 0x28 }
  - { offsetInCU: 0x15526, offset: 0x15526, size: 0x8, addend: 0x0, symName: __ZN24MatchingEngineDispatcher22receive_order_from_emsEv, symObjAddr: 0x1D1C, symBinAddr: 0x100005B38, symSize: 0x1F0 }
  - { offsetInCU: 0x1554A, offset: 0x1554A, size: 0x8, addend: 0x0, symName: __ZZN24MatchingEngineDispatcher22receive_order_from_emsEvE7counter, symObjAddr: 0x3DA4, symBinAddr: 0x10000C000, symSize: 0x0 }
  - { offsetInCU: 0x15EF1, offset: 0x15EF1, size: 0x8, addend: 0x0, symName: _main, symObjAddr: 0x0, symBinAddr: 0x100003E1C, symSize: 0x228 }
  - { offsetInCU: 0x1A025, offset: 0x1A025, size: 0x8, addend: 0x0, symName: __ZN24MatchingEngineDispatcherC2Ev, symObjAddr: 0x2D8, symBinAddr: 0x1000040F4, symSize: 0x1E0 }
  - { offsetInCU: 0x1AAA5, offset: 0x1AAA5, size: 0x8, addend: 0x0, symName: __ZNSt3__19allocatorI15ThreadSafeQueueI5OrderEE7destroyB8ue170006EPS3_, symObjAddr: 0x8AC, symBinAddr: 0x1000046C8, symSize: 0x90 }
  - { offsetInCU: 0x1AE08, offset: 0x1AE08, size: 0x8, addend: 0x0, symName: __ZN24MatchingEngineDispatcherD1Ev, symObjAddr: 0x228, symBinAddr: 0x100004044, symSize: 0xB0 }
  - { offsetInCU: 0x1BB56, offset: 0x1BB56, size: 0x8, addend: 0x0, symName: __ZN18SymbolGroupMapping12load_mappingERKNSt3__112basic_stringIcNS0_11char_traitsIcEENS0_9allocatorIcEEEE, symObjAddr: 0x4B8, symBinAddr: 0x1000042D4, symSize: 0x274 }
  - { offsetInCU: 0x1D0CF, offset: 0x1D0CF, size: 0x8, addend: 0x0, symName: __ZN18SymbolGroupMappingD1Ev, symObjAddr: 0x72C, symBinAddr: 0x100004548, symSize: 0x70 }
  - { offsetInCU: 0x1D539, offset: 0x1D539, size: 0x8, addend: 0x0, symName: __ZNSt3__16vectorI15ThreadSafeQueueI5OrderENS_9allocatorIS3_EEED1B8ue170006Ev, symObjAddr: 0x79C, symBinAddr: 0x1000045B8, symSize: 0x68 }
  - { offsetInCU: 0x1D798, offset: 0x1D798, size: 0x8, addend: 0x0, symName: __ZNSt3__112__hash_tableINS_17__hash_value_typeINS_12basic_stringIcNS_11char_traitsIcEENS_9allocatorIcEEEEiEENS_22__unordered_map_hasherIS7_S8_NS_4hashIS7_EENS_8equal_toIS7_EELb1EEENS_21__unordered_map_equalIS7_S8_SD_SB_Lb1EEENS5_IS8_EEE25__emplace_unique_key_argsIS7_JRKNS_21piecewise_construct_tENS_5tupleIJOS7_EEENSN_IJEEEEEENS_4pairINS_15__hash_iteratorIPNS_11__hash_nodeIS8_PvEEEEbEERKT_DpOT0_, symObjAddr: 0xB28, symBinAddr: 0x100004944, symSize: 0x3A0 }
  - { offsetInCU: 0x1E041, offset: 0x1E041, size: 0x8, addend: 0x0, symName: __ZNSt12length_errorC1B8ue170006EPKc, symObjAddr: 0x860, symBinAddr: 0x10000467C, symSize: 0x24 }
  - { offsetInCU: 0x1E2FF, offset: 0x1E2FF, size: 0x8, addend: 0x0, symName: __ZNSt3__15dequeI5OrderNS_9allocatorIS1_EEE5clearEv, symObjAddr: 0x93C, symBinAddr: 0x100004758, symSize: 0x170 }
  - { offsetInCU: 0x1EBA4, offset: 0x1EBA4, size: 0x8, addend: 0x0, symName: __ZN5OrderD1Ev, symObjAddr: 0xAAC, symBinAddr: 0x1000048C8, symSize: 0x7C }
  - { offsetInCU: 0x1F6CA, offset: 0x1F6CA, size: 0x8, addend: 0x0, symName: __ZNKSt3__121__murmur2_or_cityhashImLm64EEclB8ue170006EPKvm, symObjAddr: 0xF14, symBinAddr: 0x100004D30, symSize: 0x490 }
  - { offsetInCU: 0x2003B, offset: 0x2003B, size: 0x8, addend: 0x0, symName: __ZNSt3__112__hash_tableINS_17__hash_value_typeINS_12basic_stringIcNS_11char_traitsIcEENS_9allocatorIcEEEEiEENS_22__unordered_map_hasherIS7_S8_NS_4hashIS7_EENS_8equal_toIS7_EELb1EEENS_21__unordered_map_equalIS7_S8_SD_SB_Lb1EEENS5_IS8_EEE11__do_rehashILb1EEEvm, symObjAddr: 0x13A4, symBinAddr: 0x1000051C0, symSize: 0x15C }
  - { offsetInCU: 0x204B9, offset: 0x204B9, size: 0x8, addend: 0x0, symName: __ZNKSt3__112basic_stringIcNS_11char_traitsIcEENS_9allocatorIcEEE20__throw_length_errorB8ue170006Ev, symObjAddr: 0x1500, symBinAddr: 0x10000531C, symSize: 0x14 }
  - { offsetInCU: 0x204CE, offset: 0x204CE, size: 0x8, addend: 0x0, symName: __ZNSt3__110unique_ptrINS_11__hash_nodeINS_17__hash_value_typeINS_12basic_stringIcNS_11char_traitsIcEENS_9allocatorIcEEEEiEEPvEENS_22__hash_node_destructorINS6_ISB_EEEEED1B8ue170006Ev, symObjAddr: 0xEC8, symBinAddr: 0x100004CE4, symSize: 0x4C }
  - { offsetInCU: 0x20B12, offset: 0x20B12, size: 0x8, addend: 0x0, symName: __ZNKSt3__112basic_stringIcNS_11char_traitsIcEENS_9allocatorIcEEE20__throw_length_errorB8ue170006Ev, symObjAddr: 0x1500, symBinAddr: 0x10000531C, symSize: 0x14 }
  - { offsetInCU: 0x20B3C, offset: 0x20B3C, size: 0x8, addend: 0x0, symName: __ZNSt3__124__put_character_sequenceB8ue170006IcNS_11char_traitsIcEEEERNS_13basic_ostreamIT_T0_EES7_PKS4_m, symObjAddr: 0x1514, symBinAddr: 0x100005330, symSize: 0x164 }
  - { offsetInCU: 0x210ED, offset: 0x210ED, size: 0x8, addend: 0x0, symName: __ZN24MatchingEngineDispatcher5startEv, symObjAddr: 0x1900, symBinAddr: 0x10000571C, symSize: 0x174 }
  - { offsetInCU: 0x21643, offset: 0x21643, size: 0x8, addend: 0x0, symName: '__ZNSt3__110unique_ptrINS_5tupleIJNS0_INS_15__thread_structENS_14default_deleteIS2_EEEEZ4mainE3$_0EEENS3_IS7_EEED1B8ue170006Ev', symObjAddr: 0x1884, symBinAddr: 0x1000056A0, symSize: 0x48 }
  - { offsetInCU: 0x217EE, offset: 0x217EE, size: 0x8, addend: 0x0, symName: __ZNSt3__110unique_ptrINS_15__thread_structENS_14default_deleteIS1_EEED1B8ue170006Ev, symObjAddr: 0x18CC, symBinAddr: 0x1000056E8, symSize: 0x34 }
  - { offsetInCU: 0x21C9C, offset: 0x21C9C, size: 0x8, addend: 0x0, symName: __ZNSt3__16threadC2IM24MatchingEngineDispatcherFvvEJPS2_EvEEOT_DpOT0_, symObjAddr: 0x2F58, symBinAddr: 0x100006D74, symSize: 0xD0 }
  - { offsetInCU: 0x22059, offset: 0x22059, size: 0x8, addend: 0x0, symName: __ZNSt3__16vectorINS_6threadENS_9allocatorIS1_EEE24__emplace_back_slow_pathIJM24MatchingEngineDispatcherFviEPS6_RiEEEvDpOT_, symObjAddr: 0x30FC, symBinAddr: 0x100006F18, symSize: 0x15C }
  - { offsetInCU: 0x226A1, offset: 0x226A1, size: 0x8, addend: 0x0, symName: __ZNSt3__16threadC2IM24MatchingEngineDispatcherFviEJPS2_RiEvEEOT_DpOT0_, symObjAddr: 0x3258, symBinAddr: 0x100007074, symSize: 0xE4 }
  - { offsetInCU: 0x22AB5, offset: 0x22AB5, size: 0x8, addend: 0x0, symName: __ZNSt3__16vectorINS_6threadENS_9allocatorIS1_EEED1B8ue170006Ev, symObjAddr: 0x1CC4, symBinAddr: 0x100005AE0, symSize: 0x58 }
  - { offsetInCU: 0x22CA3, offset: 0x22CA3, size: 0x8, addend: 0x0, symName: __ZN24MatchingEngineDispatcher16start_dispatcherEv, symObjAddr: 0x1A74, symBinAddr: 0x100005890, symSize: 0x11C }
  - { offsetInCU: 0x23355, offset: 0x23355, size: 0x8, addend: 0x0, symName: __ZN24MatchingEngineDispatcher14dispatch_orderERK5Order, symObjAddr: 0x1F0C, symBinAddr: 0x100005D28, symSize: 0x16C }
  - { offsetInCU: 0x23B6A, offset: 0x23B6A, size: 0x8, addend: 0x0, symName: __ZN24MatchingEngineDispatcher18start_group_threadEi, symObjAddr: 0x1B90, symBinAddr: 0x1000059AC, symSize: 0x134 }
  - { offsetInCU: 0x24202, offset: 0x24202, size: 0x8, addend: 0x0, symName: __ZN15ThreadSafeQueueI5OrderE3popERS0_i, symObjAddr: 0x3478, symBinAddr: 0x100007294, symSize: 0x1C0 }
  - { offsetInCU: 0x249DE, offset: 0x249DE, size: 0x8, addend: 0x0, symName: __ZN24MatchingEngineDispatcher13process_orderEiRK5Order, symObjAddr: 0x3638, symBinAddr: 0x100007454, symSize: 0xD8 }
  - { offsetInCU: 0x24D7B, offset: 0x24D7B, size: 0x8, addend: 0x0, symName: __ZNSt3__112__hash_tableINS_17__hash_value_typeINS_12basic_stringIcNS_11char_traitsIcEENS_9allocatorIcEEEEiEENS_22__unordered_map_hasherIS7_S8_NS_4hashIS7_EENS_8equal_toIS7_EELb1EEENS_21__unordered_map_equalIS7_S8_SD_SB_Lb1EEENS5_IS8_EEE4findIS7_EENS_15__hash_iteratorIPNS_11__hash_nodeIS8_PvEEEERKT_, symObjAddr: 0x21B0, symBinAddr: 0x100005FCC, symSize: 0x184 }
  - { offsetInCU: 0x25043, offset: 0x25043, size: 0x8, addend: 0x0, symName: __ZN5OrderC2ERKS_, symObjAddr: 0x2CAC, symBinAddr: 0x100006AC8, symSize: 0x2AC }
  - { offsetInCU: 0x261B0, offset: 0x261B0, size: 0x8, addend: 0x0, symName: __ZN15ThreadSafeQueueI5OrderE4pushES0_, symObjAddr: 0x2078, symBinAddr: 0x100005E94, symSize: 0x138 }
  - { offsetInCU: 0x26718, offset: 0x26718, size: 0x8, addend: 0x0, symName: __ZNSt3__15dequeI5OrderNS_9allocatorIS1_EEE19__add_back_capacityEv, symObjAddr: 0x2334, symBinAddr: 0x100006150, symSize: 0x4B0 }
  - { offsetInCU: 0x27BC0, offset: 0x27BC0, size: 0x8, addend: 0x0, symName: __ZNSt3__114__split_bufferIP5OrderNS_9allocatorIS2_EEE9push_backEOS2_, symObjAddr: 0x27E4, symBinAddr: 0x100006600, symSize: 0x190 }
  - { offsetInCU: 0x2807C, offset: 0x2807C, size: 0x8, addend: 0x0, symName: __ZNSt3__114__split_bufferIP5OrderNS_9allocatorIS2_EEE10push_frontEOS2_, symObjAddr: 0x2974, symBinAddr: 0x100006790, symSize: 0x19C }
  - { offsetInCU: 0x28087, offset: 0x28087, size: 0x8, addend: 0x0, symName: __ZNSt3__114__split_bufferIP5OrderNS_9allocatorIS2_EEE10push_frontEOS2_, symObjAddr: 0x2974, symBinAddr: 0x100006790, symSize: 0x19C }
  - { offsetInCU: 0x2851B, offset: 0x2851B, size: 0x8, addend: 0x0, symName: __ZNSt3__114__split_bufferIP5OrderRNS_9allocatorIS2_EEE10push_frontERKS2_, symObjAddr: 0x2B10, symBinAddr: 0x10000692C, symSize: 0x19C }
  - { offsetInCU: 0x28526, offset: 0x28526, size: 0x8, addend: 0x0, symName: __ZNSt3__114__split_bufferIP5OrderRNS_9allocatorIS2_EEE10push_frontERKS2_, symObjAddr: 0x2B10, symBinAddr: 0x10000692C, symSize: 0x19C }
  - { offsetInCU: 0x28996, offset: 0x28996, size: 0x8, addend: 0x0, symName: __ZN5OrderC2ERKS_, symObjAddr: 0x2CAC, symBinAddr: 0x100006AC8, symSize: 0x2AC }
  - { offsetInCU: 0x28FE8, offset: 0x28FE8, size: 0x8, addend: 0x0, symName: __ZNSt3__110unique_ptrINS_5tupleIJNS0_INS_15__thread_structENS_14default_deleteIS2_EEEEM24MatchingEngineDispatcherFvvEPS6_EEENS3_ISA_EEED1B8ue170006Ev, symObjAddr: 0x30B4, symBinAddr: 0x100006ED0, symSize: 0x48 }
  - { offsetInCU: 0x2970C, offset: 0x2970C, size: 0x8, addend: 0x0, symName: __ZNKSt3__16vectorINS_6threadENS_9allocatorIS1_EEE20__throw_length_errorB8ue170006Ev, symObjAddr: 0x3464, symBinAddr: 0x100007280, symSize: 0x14 }
  - { offsetInCU: 0x29736, offset: 0x29736, size: 0x8, addend: 0x0, symName: __ZN15ThreadSafeQueueI5OrderE3popERS0_i, symObjAddr: 0x3478, symBinAddr: 0x100007294, symSize: 0x1C0 }
  - { offsetInCU: 0x29741, offset: 0x29741, size: 0x8, addend: 0x0, symName: __ZNSt3__114__split_bufferINS_6threadERNS_9allocatorIS1_EEED1Ev, symObjAddr: 0x3414, symBinAddr: 0x100007230, symSize: 0x50 }
  - { offsetInCU: 0x29C4C, offset: 0x29C4C, size: 0x8, addend: 0x0, symName: __ZNSt3__110unique_ptrINS_5tupleIJNS0_INS_15__thread_structENS_14default_deleteIS2_EEEEM24MatchingEngineDispatcherFviEPS6_iEEENS3_ISA_EEED1B8ue170006Ev, symObjAddr: 0x33CC, symBinAddr: 0x1000071E8, symSize: 0x48 }
  - { offsetInCU: 0x2A173, offset: 0x2A173, size: 0x8, addend: 0x0, symName: __ZNSt3__118condition_variable8wait_forB8ue170006IxNS_5ratioILl1ELl1000EEEZN15ThreadSafeQueueI5OrderE3popERS5_iEUlvE_EEbRNS_11unique_lockINS_5mutexEEERKNS_6chrono8durationIT_T0_EET1_, symObjAddr: 0x3710, symBinAddr: 0x10000752C, symSize: 0x124 }
  - { offsetInCU: 0x2A4B1, offset: 0x2A4B1, size: 0x8, addend: 0x0, symName: __ZNSt3__15dequeI5OrderNS_9allocatorIS1_EEE9pop_frontEv, symObjAddr: 0x3834, symBinAddr: 0x100007650, symSize: 0x108 }
...
